Certificate:
    Data:
        Version: 3 (0x2)
        Serial Number: 1 (0x1)
        Signature Algorithm: sha512WithRSAEncryption
        Issuer: CN=ExampleCA2
        Validity
            Not Before: Nov  4 15:13:34 2024 GMT
            Not After : Nov  4 15:13:34 2025 GMT
        Subject: C=IT, ST=Lazio, L=Rome, O=CyberITS, CN=localhost
        Subject Public Key Info:
            Public Key Algorithm: rsaEncryption
                Public-Key: (2048 bit)
                Modulus:
                    00:c3:70:a8:95:ab:09:2d:c3:ed:ea:0d:b3:49:3c:
                    d9:cf:aa:b7:50:7b:4f:5e:dc:68:f2:d6:77:0e:59:
                    da:9b:35:61:a7:66:f5:15:9b:48:f0:09:07:46:74:
                    de:80:11:d4:9b:d3:03:1a:80:91:3d:5f:fb:f4:2b:
                    79:ae:8b:70:b9:1b:c6:81:6d:69:55:41:de:3e:c0:
                    61:e9:0d:1b:6f:33:79:a0:24:66:0a:08:f9:b0:7f:
                    53:b9:fa:d3:a6:49:43:41:3d:70:14:f8:de:81:ed:
                    b3:a6:7e:48:d7:d9:c0:fb:e1:e9:a8:42:cd:91:42:
                    3c:7f:ce:ba:35:2e:9b:25:28:39:ca:da:ee:40:e7:
                    95:51:3f:3d:41:e4:45:e8:57:5f:31:a0:76:dd:1d:
                    48:e0:42:ca:9d:dd:b7:fe:46:86:d2:99:ec:c3:37:
                    e4:43:f7:7c:17:6b:2d:01:5e:b8:c9:b5:93:73:63:
                    e5:33:50:5f:dc:ba:0c:ae:18:2a:c6:46:f8:64:de:
                    32:21:43:e8:97:58:04:57:0e:a5:63:9b:c1:b7:1f:
                    7b:ce:a7:e9:6f:04:18:20:23:67:c5:54:98:88:4c:
                    72:02:23:53:ff:a7:fa:21:56:e3:8e:de:11:04:ef:
                    2d:5f:84:d0:51:f3:53:14:f3:2e:30:a5:f7:f2:f8:
                    43:9d
                Exponent: 65537 (0x10001)
        X509v3 extensions:
            X509v3 Subject Key Identifier: 
                8F:6E:2C:42:34:A0:23:EB:87:8F:2C:5D:AA:CD:40:B9:D3:D3:8A:A8
            X509v3 Basic Constraints: critical
                CA:FALSE
            Netscape Cert Type: 
                SSL Server
            X509v3 Key Usage: 
                Digital Signature, Non Repudiation, Key Encipherment
            X509v3 Extended Key Usage: 
                TLS Web Server Authentication
            X509v3 Subject Alternative Name: 
                DNS:localhost, IP Address:127.0.0.1, IP Address:0:0:0:0:0:0:0:1
            X509v3 Authority Key Identifier: 
                B0:1C:C9:33:84:C1:76:28:50:1E:54:1A:B7:F9:7B:C6:E3:45:2E:A2
    Signature Algorithm: sha512WithRSAEncryption
    Signature Value:
        08:5c:d9:87:f2:e4:40:e9:cb:1a:8e:c8:28:8b:f9:5e:d7:c3:
        42:1d:71:ad:5a:d4:f5:9c:f8:b7:6e:89:9d:92:74:6f:3a:37:
        99:41:29:23:71:02:8a:62:1e:8d:be:e0:31:ac:a4:7c:5b:e7:
        37:f7:22:79:82:46:e8:83:dc:4f:e7:9c:5d:04:2b:b0:32:09:
        ac:40:84:a9:b4:95:dd:91:16:83:6c:77:13:f6:48:32:b1:ba:
        55:8d:24:7e:5b:f4:55:23:a3:3c:21:1e:84:48:38:aa:95:ec:
        63:b2:e9:6b:d9:22:73:70:77:5b:25:f0:24:f8:a1:6a:86:01:
        c0:e6:08:91:5c:cd:05:27:c5:e4:6b:4d:5f:3f:1f:73:61:05:
        a7:6c:73:6f:07:2b:9d:d5:2f:91:bb:7c:ad:49:ae:81:bb:9a:
        91:c0:5f:54:74:9c:9e:48:e7:eb:56:9f:bb:be:d0:68:6a:c7:
        1e:4e:03:ef:ae:72:77:73:3c:53:2c:3c:2d:00:40:d9:3e:b8:
        50:e0:67:f8:6f:01:3a:cc:8f:3d:fa:1b:b9:35:8e:54:7d:50:
        e2:34:32:df:ca:6c:88:ab:1c:8e:1f:a0:0f:bd:61:1f:9a:20:
        67:dc:a9:d9:1a:02:8c:ba:02:4b:de:46:a2:fb:9f:1e:ca:f9:
        13:0c:63:46
-----BEGIN CERTIFICATE-----
MIIDmDCCAoCgAwIBAgIBATANBgkqhkiG9w0BAQ0FADAVMRMwEQYDVQQDDApFeGFt
cGxlQ0EyMB4XDTI0MTEwNDE1MTMzNFoXDTI1MTEwNDE1MTMzNFowUzELMAkGA1UE
BhMCSVQxDjAMBgNVBAgMBUxhemlvMQ0wCwYDVQQHDARSb21lMREwDwYDVQQKDAhD
eWJlcklUUzESMBAGA1UEAwwJbG9jYWxob3N0MIIBIjANBgkqhkiG9w0BAQEFAAOC
AQ8AMIIBCgKCAQEAw3ColasJLcPt6g2zSTzZz6q3UHtPXtxo8tZ3DlnamzVhp2b1
FZtI8AkHRnTegBHUm9MDGoCRPV/79Ct5rotwuRvGgW1pVUHePsBh6Q0bbzN5oCRm
Cgj5sH9TufrTpklDQT1wFPjege2zpn5I19nA++HpqELNkUI8f866NS6bJSg5ytru
QOeVUT89QeRF6FdfMaB23R1I4ELKnd23/kaG0pnswzfkQ/d8F2stAV64ybWTc2Pl
M1Bf3LoMrhgqxkb4ZN4yIUPol1gEVw6lY5vBtx97zqfpbwQYICNnxVSYiExyAiNT
/6f6IVbjjt4RBO8tX4TQUfNTFPMuMKX38vhDnQIDAQABo4G0MIGxMB0GA1UdDgQW
BBSPbixCNKAj64ePLF2qzUC509OKqDAMBgNVHRMBAf8EAjAAMBEGCWCGSAGG+EIB
AQQEAwIGQDALBgNVHQ8EBAMCBeAwEwYDVR0lBAwwCgYIKwYBBQUHAwEwLAYDVR0R
BCUwI4IJbG9jYWxob3N0hwR/AAABhxAAAAAAAAAAAAAAAAAAAAABMB8GA1UdIwQY
MBaAFLAcyTOEwXYoUB5UGrf5e8bjRS6iMA0GCSqGSIb3DQEBDQUAA4IBAQAIXNmH
8uRA6csajsgoi/le18NCHXGtWtT1nPi3bomdknRvOjeZQSkjcQKKYh6NvuAxrKR8
W+c39yJ5gkbog9xP55xdBCuwMgmsQISptJXdkRaDbHcT9kgysbpVjSR+W/RVI6M8
IR6ESDiqlexjsulr2SJzcHdbJfAk+KFqhgHA5giRXM0FJ8Xka01fPx9zYQWnbHNv
Byud1S+Ru3ytSa6Bu5qRwF9UdJyeSOfrVp+7vtBoasceTgPvrnJ3czxTLDwtAEDZ
PrhQ4Gf4bwE6zI89+hu5NY5UfVDiNDLfymyIqxyOH6APvWEfmiBn3KnZGgKMugJL
3kai+58eyvkTDGNG
-----END CERTIFICATE-----
